target datalayout = "e-m:e-p270:32:32-p271:32:32-p272:64:64-i64:64-i128:128-f80:128-n8:16:32:64-S128"
target triple = "x86_64-pc-linux-gnu"

%struct.AVFilterContext = type { ptr, ptr, ptr, ptr, ptr, i32, ptr, ptr, i32, ptr, ptr, i32, i32, ptr, ptr, ptr, ptr, i32, ptr, i32, i32 }
%struct.RemapContext = type { ptr, i32, i32, i32, i32, [4 x i8], [4 x i32], %struct.FFFrameSync, ptr }
%struct.FFFrameSync = type { ptr, ptr, i32, %struct.AVRational, i64, ptr, ptr, i32, i32, i8, i8, ptr, i32, i32, i32, i32 }
%struct.AVRational = type { i32, i32 }
%struct.AVFilterFormatsConfig = type { ptr, ptr, ptr, ptr, ptr }
%struct.AVFilterLink = type { ptr, ptr, ptr, ptr, i32, i32, i32, i32, %struct.AVRational, i32, i32, i32, %struct.AVChannelLayout, %struct.AVRational, ptr, i32, %struct.AVFilterFormatsConfig, %struct.AVFilterFormatsConfig }
%struct.AVChannelLayout = type { i32, i32, %union.anon.1, ptr }
%union.anon.1 = type { i64 }
%struct.AVPixFmtDescriptor = type { ptr, i8, i8, i8, i64, [4 x %struct.AVComponentDescriptor], ptr }
%struct.AVComponentDescriptor = type { i32, i32, i32, i32, i32 }

; Function Attrs: nounwind uwtable
define internal i32 @config_input(ptr noundef %0) #1 {
  %2 = alloca ptr, align 8
  %3 = alloca ptr, align 8
  %4 = alloca ptr, align 8
  %5 = alloca ptr, align 8
  %6 = alloca i32, align 4
  %7 = alloca i32, align 4
  %8 = alloca i32, align 4
  %9 = alloca [4 x i8], align 1
  store ptr %0, ptr %2, align 8, !tbaa !37
  call void @llvm.lifetime.start.p0(i64 8, ptr %3) #8
  %10 = load ptr, ptr %2, align 8, !tbaa !37
  %11 = getelementptr inbounds nuw %struct.AVFilterLink, ptr %10, i32 0, i32 2
  %12 = load ptr, ptr %11, align 8, !tbaa !39
  store ptr %12, ptr %3, align 8, !tbaa !4
  call void @llvm.lifetime.start.p0(i64 8, ptr %4) #8
  %13 = load ptr, ptr %3, align 8, !tbaa !4
  %14 = getelementptr inbounds nuw %struct.AVFilterContext, ptr %13, i32 0, i32 9
  %15 = load ptr, ptr %14, align 8, !tbaa !9
  store ptr %15, ptr %4, align 8, !tbaa !22
  call void @llvm.lifetime.start.p0(i64 8, ptr %5) #8
  %16 = load ptr, ptr %2, align 8, !tbaa !37
  %17 = getelementptr inbounds nuw %struct.AVFilterLink, ptr %16, i32 0, i32 5
  %18 = load i32, ptr %17, align 4, !tbaa !45
  %19 = call ptr @av_pix_fmt_desc_get(i32 noundef %18)
  store ptr %19, ptr %5, align 8, !tbaa !46
  call void @llvm.lifetime.start.p0(i64 4, ptr %6) #8
  %20 = load ptr, ptr %5, align 8, !tbaa !46
  %21 = getelementptr inbounds nuw %struct.AVPixFmtDescriptor, ptr %20, i32 0, i32 5
  %22 = getelementptr inbounds [4 x %struct.AVComponentDescriptor], ptr %21, i64 0, i64 0
  %23 = getelementptr inbounds nuw %struct.AVComponentDescriptor, ptr %22, i32 0, i32 4
  %24 = load i32, ptr %23, align 8, !tbaa !48
  store i32 %24, ptr %6, align 4, !tbaa !36
  call void @llvm.lifetime.start.p0(i64 4, ptr %7) #8
  %25 = load ptr, ptr %5, align 8, !tbaa !46
  %26 = getelementptr inbounds nuw %struct.AVPixFmtDescriptor, ptr %25, i32 0, i32 4
  %27 = load i64, ptr %26, align 8, !tbaa !50
  %28 = and i64 %27, 32
  %29 = icmp ne i64 %28, 0
  %30 = xor i1 %29, true
  %31 = xor i1 %30, true
  %32 = zext i1 %31 to i32
  store i32 %32, ptr %7, align 4, !tbaa !36
  call void @llvm.lifetime.start.p0(i64 4, ptr %8) #8
  %33 = load i32, ptr %6, align 4, !tbaa !36
  %34 = sub nsw i32 %33, 8
  %35 = shl i32 1, %34
  store i32 %35, ptr %8, align 4, !tbaa !36
  call void @llvm.lifetime.start.p0(i64 4, ptr %9) #8
  %36 = getelementptr inbounds [4 x i8], ptr %9, i64 0, i64 0
  %37 = load ptr, ptr %2, align 8, !tbaa !37
  %38 = getelementptr inbounds nuw %struct.AVFilterLink, ptr %37, i32 0, i32 5
  %39 = load i32, ptr %38, align 4, !tbaa !45
  %40 = call i32 @ff_fill_rgba_map(ptr noundef %36, i32 noundef %39)
  %41 = load ptr, ptr %2, align 8, !tbaa !37
  %42 = getelementptr inbounds nuw %struct.AVFilterLink, ptr %41, i32 0, i32 5
  %43 = load i32, ptr %42, align 4, !tbaa !45
  %44 = call i32 @av_pix_fmt_count_planes(i32 noundef %43)
  %45 = load ptr, ptr %4, align 8, !tbaa !22
  %46 = getelementptr inbounds nuw %struct.RemapContext, ptr %45, i32 0, i32 2
  store i32 %44, ptr %46, align 4, !tbaa !52
  %47 = load ptr, ptr %5, align 8, !tbaa !46
  %48 = getelementptr inbounds nuw %struct.AVPixFmtDescriptor, ptr %47, i32 0, i32 1
  %49 = load i8, ptr %48, align 8, !tbaa !53
  %50 = zext i8 %49 to i32
  %51 = load ptr, ptr %4, align 8, !tbaa !22
  %52 = getelementptr inbounds nuw %struct.RemapContext, ptr %51, i32 0, i32 3
  store i32 %50, ptr %52, align 8, !tbaa !54
  %53 = load i32, ptr %7, align 4, !tbaa !36
  %54 = icmp ne i32 %53, 0
  br i1 %54, label %55, label %108

55:                                               ; preds = %1
  %56 = load ptr, ptr %4, align 8, !tbaa !22
  %57 = getelementptr inbounds nuw %struct.RemapContext, ptr %56, i32 0, i32 5
  %58 = getelementptr inbounds [4 x i8], ptr %57, i64 0, i64 0
  %59 = load i8, ptr %58, align 8, !tbaa !55
  %60 = zext i8 %59 to i32
  %61 = load i32, ptr %8, align 4, !tbaa !36
  %62 = mul nsw i32 %60, %61
  %63 = load ptr, ptr %4, align 8, !tbaa !22
  %64 = getelementptr inbounds nuw %struct.RemapContext, ptr %63, i32 0, i32 6
  %65 = getelementptr inbounds [4 x i8], ptr %9, i64 0, i64 0
  %66 = load i8, ptr %65, align 1, !tbaa !55
  %67 = zext i8 %66 to i64
  %68 = getelementptr inbounds nuw [4 x i32], ptr %64, i64 0, i64 %67
  store i32 %62, ptr %68, align 4, !tbaa !36
  %69 = load ptr, ptr %4, align 8, !tbaa !22
  %70 = getelementptr inbounds nuw %struct.RemapContext, ptr %69, i32 0, i32 5
  %71 = getelementptr inbounds [4 x i8], ptr %70, i64 0, i64 1
  %72 = load i8, ptr %71, align 1, !tbaa !55
  %73 = zext i8 %72 to i32
  %74 = load i32, ptr %8, align 4, !tbaa !36
  %75 = mul nsw i32 %73, %74
  %76 = load ptr, ptr %4, align 8, !tbaa !22
  %77 = getelementptr inbounds nuw %struct.RemapContext, ptr %76, i32 0, i32 6
  %78 = getelementptr inbounds [4 x i8], ptr %9, i64 0, i64 1
  %79 = load i8, ptr %78, align 1, !tbaa !55
  %80 = zext i8 %79 to i64
  %81 = getelementptr inbounds nuw [4 x i32], ptr %77, i64 0, i64 %80
  store i32 %75, ptr %81, align 4, !tbaa !36
  %82 = load ptr, ptr %4, align 8, !tbaa !22
  %83 = getelementptr inbounds nuw %struct.RemapContext, ptr %82, i32 0, i32 5
  %84 = getelementptr inbounds [4 x i8], ptr %83, i64 0, i64 2
  %85 = load i8, ptr %84, align 2, !tbaa !55
  %86 = zext i8 %85 to i32
  %87 = load i32, ptr %8, align 4, !tbaa !36
  %88 = mul nsw i32 %86, %87
  %89 = load ptr, ptr %4, align 8, !tbaa !22
  %90 = getelementptr inbounds nuw %struct.RemapContext, ptr %89, i32 0, i32 6
  %91 = getelementptr inbounds [4 x i8], ptr %9, i64 0, i64 2
  %92 = load i8, ptr %91, align 1, !tbaa !55
  %93 = zext i8 %92 to i64
  %94 = getelementptr inbounds nuw [4 x i32], ptr %90, i64 0, i64 %93
  store i32 %88, ptr %94, align 4, !tbaa !36
  %95 = load ptr, ptr %4, align 8, !tbaa !22
  %96 = getelementptr inbounds nuw %struct.RemapContext, ptr %95, i32 0, i32 5
  %97 = getelementptr inbounds [4 x i8], ptr %96, i64 0, i64 3
  %98 = load i8, ptr %97, align 1, !tbaa !55
  %99 = zext i8 %98 to i32
  %100 = load i32, ptr %8, align 4, !tbaa !36
  %101 = mul nsw i32 %99, %100
  %102 = load ptr, ptr %4, align 8, !tbaa !22
  %103 = getelementptr inbounds nuw %struct.RemapContext, ptr %102, i32 0, i32 6
  %104 = getelementptr inbounds [4 x i8], ptr %9, i64 0, i64 3
  %105 = load i8, ptr %104, align 1, !tbaa !55
  %106 = zext i8 %105 to i64
  %107 = getelementptr inbounds nuw [4 x i32], ptr %103, i64 0, i64 %106
  store i32 %101, ptr %107, align 4, !tbaa !36
  br label %204

108:                                              ; preds = %1
  %109 = load ptr, ptr %4, align 8, !tbaa !22
  %110 = getelementptr inbounds nuw %struct.RemapContext, ptr %109, i32 0, i32 5
  %111 = getelementptr inbounds [4 x i8], ptr %110, i64 0, i64 0
  %112 = load i8, ptr %111, align 8, !tbaa !55
  %113 = zext i8 %112 to i32
  %114 = mul nsw i32 187, %113
  %115 = load ptr, ptr %4, align 8, !tbaa !22
  %116 = getelementptr inbounds nuw %struct.RemapContext, ptr %115, i32 0, i32 5
  %117 = getelementptr inbounds [4 x i8], ptr %116, i64 0, i64 1
  %118 = load i8, ptr %117, align 1, !tbaa !55
  %119 = zext i8 %118 to i32
  %120 = mul nsw i32 629, %119
  %121 = add nsw i32 %114, %120
  %122 = load ptr, ptr %4, align 8, !tbaa !22
  %123 = getelementptr inbounds nuw %struct.RemapContext, ptr %122, i32 0, i32 5
  %124 = getelementptr inbounds [4 x i8], ptr %123, i64 0, i64 2
  %125 = load i8, ptr %124, align 2, !tbaa !55
  %126 = zext i8 %125 to i32
  %127 = mul nsw i32 63, %126
  %128 = add nsw i32 %121, %127
  %129 = add nsw i32 %128, 16896
  %130 = ashr i32 %129, 10
  %131 = load i32, ptr %8, align 4, !tbaa !36
  %132 = mul nsw i32 %130, %131
  %133 = load ptr, ptr %4, align 8, !tbaa !22
  %134 = getelementptr inbounds nuw %struct.RemapContext, ptr %133, i32 0, i32 6
  %135 = getelementptr inbounds [4 x i32], ptr %134, i64 0, i64 0
  store i32 %132, ptr %135, align 4, !tbaa !36
  %136 = load ptr, ptr %4, align 8, !tbaa !22
  %137 = getelementptr inbounds nuw %struct.RemapContext, ptr %136, i32 0, i32 5
  %138 = getelementptr inbounds [4 x i8], ptr %137, i64 0, i64 0
  %139 = load i8, ptr %138, align 8, !tbaa !55
  %140 = zext i8 %139 to i32
  %141 = mul nsw i32 -103, %140
  %142 = load ptr, ptr %4, align 8, !tbaa !22
  %143 = getelementptr inbounds nuw %struct.RemapContext, ptr %142, i32 0, i32 5
  %144 = getelementptr inbounds [4 x i8], ptr %143, i64 0, i64 1
  %145 = load i8, ptr %144, align 1, !tbaa !55
  %146 = zext i8 %145 to i32
  %147 = mul nsw i32 347, %146
  %148 = sub nsw i32 %141, %147
  %149 = load ptr, ptr %4, align 8, !tbaa !22
  %150 = getelementptr inbounds nuw %struct.RemapContext, ptr %149, i32 0, i32 5
  %151 = getelementptr inbounds [4 x i8], ptr %150, i64 0, i64 2
  %152 = load i8, ptr %151, align 2, !tbaa !55
  %153 = zext i8 %152 to i32
  %154 = mul nsw i32 450, %153
  %155 = add nsw i32 %148, %154
  %156 = add nsw i32 %155, 512
  %157 = sub nsw i32 %156, 1
  %158 = ashr i32 %157, 10
  %159 = add nsw i32 %158, 128
  %160 = load i32, ptr %8, align 4, !tbaa !36
  %161 = mul nsw i32 %159, %160
  %162 = load ptr, ptr %4, align 8, !tbaa !22
  %163 = getelementptr inbounds nuw %struct.RemapContext, ptr %162, i32 0, i32 6
  %164 = getelementptr inbounds [4 x i32], ptr %163, i64 0, i64 1
  store i32 %161, ptr %164, align 4, !tbaa !36
  %165 = load ptr, ptr %4, align 8, !tbaa !22
  %166 = getelementptr inbounds nuw %struct.RemapContext, ptr %165, i32 0, i32 5
  %167 = getelementptr inbounds [4 x i8], ptr %166, i64 0, i64 0
  %168 = load i8, ptr %167, align 8, !tbaa !55
  %169 = zext i8 %168 to i32
  %170 = mul nsw i32 450, %169
  %171 = load ptr, ptr %4, align 8, !tbaa !22
  %172 = getelementptr inbounds nuw %struct.RemapContext, ptr %171, i32 0, i32 5
  %173 = getelementptr inbounds [4 x i8], ptr %172, i64 0, i64 1
  %174 = load i8, ptr %173, align 1, !tbaa !55
  %175 = zext i8 %174 to i32
  %176 = mul nsw i32 409, %175
  %177 = sub nsw i32 %170, %176
  %178 = load ptr, ptr %4, align 8, !tbaa !22
  %179 = getelementptr inbounds nuw %struct.RemapContext, ptr %178, i32 0, i32 5
  %180 = getelementptr inbounds [4 x i8], ptr %179, i64 0, i64 2
  %181 = load i8, ptr %180, align 2, !tbaa !55
  %182 = zext i8 %181 to i32
  %183 = mul nsw i32 41, %182
  %184 = sub nsw i32 %177, %183
  %185 = add nsw i32 %184, 512
  %186 = sub nsw i32 %185, 1
  %187 = ashr i32 %186, 10
  %188 = add nsw i32 %187, 128
  %189 = load i32, ptr %8, align 4, !tbaa !36
  %190 = mul nsw i32 %188, %189
  %191 = load ptr, ptr %4, align 8, !tbaa !22
  %192 = getelementptr inbounds nuw %struct.RemapContext, ptr %191, i32 0, i32 6
  %193 = getelementptr inbounds [4 x i32], ptr %192, i64 0, i64 2
  store i32 %190, ptr %193, align 4, !tbaa !36
  %194 = load ptr, ptr %4, align 8, !tbaa !22
  %195 = getelementptr inbounds nuw %struct.RemapContext, ptr %194, i32 0, i32 5
  %196 = getelementptr inbounds [4 x i8], ptr %195, i64 0, i64 3
  %197 = load i8, ptr %196, align 1, !tbaa !55
  %198 = zext i8 %197 to i32
  %199 = load i32, ptr %8, align 4, !tbaa !36
  %200 = mul nsw i32 %198, %199
  %201 = load ptr, ptr %4, align 8, !tbaa !22
  %202 = getelementptr inbounds nuw %struct.RemapContext, ptr %201, i32 0, i32 6
  %203 = getelementptr inbounds [4 x i32], ptr %202, i64 0, i64 3
  store i32 %200, ptr %203, align 4, !tbaa !36
  br label %204

204:                                              ; preds = %108, %55
  %205 = load i32, ptr %6, align 4, !tbaa !36
  %206 = icmp eq i32 %205, 8
  br i1 %206, label %207, label %224

207:                                              ; preds = %204
  %208 = load ptr, ptr %4, align 8, !tbaa !22
  %209 = getelementptr inbounds nuw %struct.RemapContext, ptr %208, i32 0, i32 2
  %210 = load i32, ptr %209, align 4, !tbaa !52
  %211 = icmp sgt i32 %210, 1
  br i1 %211, label %217, label %212

212:                                              ; preds = %207
  %213 = load ptr, ptr %4, align 8, !tbaa !22
  %214 = getelementptr inbounds nuw %struct.RemapContext, ptr %213, i32 0, i32 3
  %215 = load i32, ptr %214, align 8, !tbaa !54
  %216 = icmp eq i32 %215, 1
  br i1 %216, label %217, label %220

217:                                              ; preds = %212, %207
  %218 = load ptr, ptr %4, align 8, !tbaa !22
  %219 = getelementptr inbounds nuw %struct.RemapContext, ptr %218, i32 0, i32 8
  store ptr @remap_planar8_nearest_slice, ptr %219, align 8, !tbaa !56
  br label %223

220:                                              ; preds = %212
  %221 = load ptr, ptr %4, align 8, !tbaa !22
  %222 = getelementptr inbounds nuw %struct.RemapContext, ptr %221, i32 0, i32 8
  store ptr @remap_packed8_nearest_slice, ptr %222, align 8, !tbaa !56
  br label %223

223:                                              ; preds = %220, %217
  br label %241

224:                                              ; preds = %204
  %225 = load ptr, ptr %4, align 8, !tbaa !22
  %226 = getelementptr inbounds nuw %struct.RemapContext, ptr %225, i32 0, i32 2
  %227 = load i32, ptr %226, align 4, !tbaa !52
  %228 = icmp sgt i32 %227, 1
  br i1 %228, label %234, label %229

229:                                              ; preds = %224
  %230 = load ptr, ptr %4, align 8, !tbaa !22
  %231 = getelementptr inbounds nuw %struct.RemapContext, ptr %230, i32 0, i32 3
  %232 = load i32, ptr %231, align 8, !tbaa !54
  %233 = icmp eq i32 %232, 1
  br i1 %233, label %234, label %237

234:                                              ; preds = %229, %224
  %235 = load ptr, ptr %4, align 8, !tbaa !22
  %236 = getelementptr inbounds nuw %struct.RemapContext, ptr %235, i32 0, i32 8
  store ptr @remap_planar16_nearest_slice, ptr %236, align 8, !tbaa !56
  br label %240

237:                                              ; preds = %229
  %238 = load ptr, ptr %4, align 8, !tbaa !22
  %239 = getelementptr inbounds nuw %struct.RemapContext, ptr %238, i32 0, i32 8
  store ptr @remap_packed16_nearest_slice, ptr %239, align 8, !tbaa !56
  br label %240

240:                                              ; preds = %237, %234
  br label %241

241:                                              ; preds = %240, %223
  %242 = load ptr, ptr %5, align 8, !tbaa !46
  %243 = call i32 @av_get_padded_bits_per_pixel(ptr noundef %242)
  %244 = ashr i32 %243, 3
  %245 = load ptr, ptr %4, align 8, !tbaa !22
  %246 = getelementptr inbounds nuw %struct.RemapContext, ptr %245, i32 0, i32 4
  store i32 %244, ptr %246, align 4, !tbaa !57
  call void @llvm.lifetime.end.p0(i64 4, ptr %9) #8
  call void @llvm.lifetime.end.p0(i64 4, ptr %8) #8
  call void @llvm.lifetime.end.p0(i64 4, ptr %7) #8
  call void @llvm.lifetime.end.p0(i64 4, ptr %6) #8
  call void @llvm.lifetime.end.p0(i64 8, ptr %5) #8
  call void @llvm.lifetime.end.p0(i64 8, ptr %4) #8
  call void @llvm.lifetime.end.p0(i64 8, ptr %3) #8
  ret i32 0
}