; Function Attrs: nounwind uwtable
define internal noundef i32 @config_input(ptr noundef readonly captures(none) %0) #1 {
  %2 = alloca [4 x i8], align 1
  %3 = getelementptr inbounds nuw i8, ptr %0, i64 16
  %4 = load ptr, ptr %3, align 8, !tbaa !29
  %5 = getelementptr inbounds nuw i8, ptr %4, i64 72
  %6 = load ptr, ptr %5, align 8, !tbaa !4
  %7 = getelementptr inbounds nuw i8, ptr %0, i64 36
  %8 = load i32, ptr %7, align 4, !tbaa !36
  %9 = tail call ptr @av_pix_fmt_desc_get(i32 noundef %8) #8
  %10 = getelementptr inbounds nuw i8, ptr %9, i64 40
  %11 = load i32, ptr %10, align 8, !tbaa !37
  %12 = getelementptr inbounds nuw i8, ptr %9, i64 16
  %13 = load i64, ptr %12, align 8, !tbaa !39
  %14 = and i64 %13, 32
  %.not = icmp eq i64 %14, 0
  %15 = add nsw i32 %11, -8
  call void @llvm.lifetime.start.p0(i64 4, ptr nonnull %2) #8
  %16 = load i32, ptr %7, align 4, !tbaa !36
  %17 = call i32 @ff_fill_rgba_map(ptr noundef nonnull %2, i32 noundef %16) #8
  %18 = load i32, ptr %7, align 4, !tbaa !36
  %19 = call i32 @av_pix_fmt_count_planes(i32 noundef %18) #8
  %20 = getelementptr inbounds nuw i8, ptr %6, i64 12
  store i32 %19, ptr %20, align 4, !tbaa !41
  %21 = getelementptr inbounds nuw i8, ptr %9, i64 8
  %22 = load i8, ptr %21, align 8, !tbaa !42
  %23 = zext i8 %22 to i32
  %24 = getelementptr inbounds nuw i8, ptr %6, i64 16
  store i32 %23, ptr %24, align 8, !tbaa !43
  %25 = getelementptr inbounds nuw i8, ptr %6, i64 24
  %26 = load i8, ptr %25, align 8, !tbaa !44
  %27 = zext i8 %26 to i32
  br i1 %.not, label %58, label %28

28:                                               ; preds = %1
  %29 = shl i32 %27, %15
  %30 = getelementptr inbounds nuw i8, ptr %6, i64 28
  %31 = load i8, ptr %2, align 1, !tbaa !44
  %32 = zext i8 %31 to i64
  %33 = getelementptr inbounds nuw [4 x i32], ptr %30, i64 0, i64 %32
  store i32 %29, ptr %33, align 4, !tbaa !45
  %34 = getelementptr inbounds nuw i8, ptr %6, i64 25
  %35 = load i8, ptr %34, align 1, !tbaa !44
  %36 = zext i8 %35 to i32
  %37 = shl i32 %36, %15
  %38 = getelementptr inbounds nuw i8, ptr %2, i64 1
  %39 = load i8, ptr %38, align 1, !tbaa !44
  %40 = zext i8 %39 to i64
  %41 = getelementptr inbounds nuw [4 x i32], ptr %30, i64 0, i64 %40
  store i32 %37, ptr %41, align 4, !tbaa !45
  %42 = getelementptr inbounds nuw i8, ptr %6, i64 26
  %43 = load i8, ptr %42, align 2, !tbaa !44
  %44 = zext i8 %43 to i32
  %45 = shl i32 %44, %15
  %46 = getelementptr inbounds nuw i8, ptr %2, i64 2
  %47 = load i8, ptr %46, align 1, !tbaa !44
  %48 = zext i8 %47 to i64
  %49 = getelementptr inbounds nuw [4 x i32], ptr %30, i64 0, i64 %48
  store i32 %45, ptr %49, align 4, !tbaa !45
  %50 = getelementptr inbounds nuw i8, ptr %6, i64 27
  %51 = load i8, ptr %50, align 1, !tbaa !44
  %52 = zext i8 %51 to i32
  %53 = shl i32 %52, %15
  %54 = getelementptr inbounds nuw i8, ptr %2, i64 3
  %55 = load i8, ptr %54, align 1, !tbaa !44
  %56 = zext i8 %55 to i64
  %57 = getelementptr inbounds nuw [4 x i32], ptr %30, i64 0, i64 %56
  store i32 %53, ptr %57, align 4, !tbaa !45
  br label %96

58:                                               ; preds = %1
  %59 = mul nuw nsw i32 %27, 187
  %60 = getelementptr inbounds nuw i8, ptr %6, i64 25
  %61 = load i8, ptr %60, align 1, !tbaa !44
  %62 = zext i8 %61 to i32
  %63 = mul nuw nsw i32 %62, 629
  %64 = getelementptr inbounds nuw i8, ptr %6, i64 26
  %65 = load i8, ptr %64, align 2, !tbaa !44
  %66 = zext i8 %65 to i32
  %67 = mul nuw nsw i32 %66, 63
  %68 = add nuw nsw i32 %59, 16896
  %69 = add nuw nsw i32 %68, %63
  %70 = add nuw nsw i32 %69, %67
  %71 = lshr i32 %70, 10
  %72 = shl i32 %71, %15
  %73 = getelementptr inbounds nuw i8, ptr %6, i64 28
  store i32 %72, ptr %73, align 4, !tbaa !45
  %74 = mul nsw i32 %27, -103
  %.neg = mul nsw i32 %62, -347
  %75 = mul nuw nsw i32 %66, 450
  %76 = add nsw i32 %74, 511
  %77 = add nsw i32 %76, %.neg
  %78 = add nsw i32 %77, %75
  %79 = ashr i32 %78, 10
  %80 = add nsw i32 %79, 128
  %81 = shl i32 %80, %15
  %82 = getelementptr inbounds nuw i8, ptr %6, i64 32
  store i32 %81, ptr %82, align 4, !tbaa !45
  %83 = mul nuw nsw i32 %27, 450
  %.neg52 = mul nsw i32 %62, -409
  %.neg53 = mul nsw i32 %66, -41
  %84 = add nuw nsw i32 %83, 511
  %85 = add nsw i32 %84, %.neg52
  %86 = add nsw i32 %85, %.neg53
  %87 = ashr i32 %86, 10
  %88 = add nsw i32 %87, 128
  %89 = shl i32 %88, %15
  %90 = getelementptr inbounds nuw i8, ptr %6, i64 36
  store i32 %89, ptr %90, align 4, !tbaa !45
  %91 = getelementptr inbounds nuw i8, ptr %6, i64 27
  %92 = load i8, ptr %91, align 1, !tbaa !44
  %93 = zext i8 %92 to i32
  %94 = shl i32 %93, %15
  %95 = getelementptr inbounds nuw i8, ptr %6, i64 40
  store i32 %94, ptr %95, align 4, !tbaa !45
  br label %96

96:                                               ; preds = %58, %28
  %97 = icmp eq i32 %11, 8
  %98 = icmp sgt i32 %19, 1
  %99 = icmp eq i8 %22, 1
  %or.cond = select i1 %98, i1 true, i1 %99
  %100 = getelementptr inbounds nuw i8, ptr %6, i64 144
  %remap_planar8_nearest_slice.remap_packed8_nearest_slice = select i1 %or.cond, ptr @remap_planar8_nearest_slice, ptr @remap_packed8_nearest_slice
  %remap_planar16_nearest_slice.remap_packed16_nearest_slice = select i1 %or.cond, ptr @remap_planar16_nearest_slice, ptr @remap_packed16_nearest_slice
  %remap_planar16_nearest_slice.sink = select i1 %97, ptr %remap_planar8_nearest_slice.remap_packed8_nearest_slice, ptr %remap_planar16_nearest_slice.remap_packed16_nearest_slice
  store ptr %remap_planar16_nearest_slice.sink, ptr %100, align 8, !tbaa !46
  %101 = call i32 @av_get_padded_bits_per_pixel(ptr noundef nonnull %9) #8
  %102 = ashr i32 %101, 3
  %103 = getelementptr inbounds nuw i8, ptr %6, i64 20
  store i32 %102, ptr %103, align 4, !tbaa !47
  call void @llvm.lifetime.end.p0(i64 4, ptr nonnull %2) #8
  ret i32 0
}